target datalayout = "e-m:e-p270:32:32-p271:32:32-p272:64:64-i64:64-i128:128-f80:128-n8:16:32:64-S128"
target triple = "x86_64-pc-linux-gnu"

%struct._zend_executor_globals = type { %struct._zval_struct, %struct._zval_struct, [32 x ptr], ptr, ptr, %struct._zend_array, %struct._zend_array, ptr, i32, i8, %struct._zval_struct, i32, ptr, ptr, ptr, ptr, ptr, ptr, i64, ptr, ptr, i32, ptr, i32, i64, i32, i32, i32, i8, i8, %struct.zend_atomic_bool_s, %struct.zend_atomic_bool_s, ptr, i64, ptr, ptr, %struct._zend_array, %struct._zend_array, i32, i8, %struct._zval_struct, %struct._zval_struct, %struct._zend_stack, %struct._zend_stack, %struct._zend_stack, ptr, i32, i32, i64, ptr, ptr, ptr, %struct._zend_objects_store, %struct._zend_lazy_objects_store, ptr, ptr, ptr, [3 x %struct._zend_op], ptr, i8, i8, i64, i32, i32, ptr, [16 x %struct._HashTableIterator], ptr, %union._zend_function, %struct._zend_op, %struct._zend_array, i64, %struct.zend_get_gc_buffer, ptr, ptr, ptr, i64, i8, i32, ptr, ptr, i64, %struct._zend_call_stack, i64, i64, %struct._zend_strtod_state, [6 x ptr] }
%struct.zend_atomic_bool_s = type { i8 }
%struct._zval_struct = type { %union._zend_value, %union.anon, %union.anon.2 }
%union._zend_value = type { i64 }
%union.anon = type { i32 }
%union.anon.2 = type { i32 }
%struct._zend_stack = type { i32, i32, i32, ptr }
%struct._zend_objects_store = type { ptr, i32, i32, i32 }
%struct._zend_lazy_objects_store = type { %struct._zend_array }
%struct._HashTableIterator = type { ptr, i32, i32 }
%union._zend_function = type { %struct._zend_op_array }
%struct._zend_op_array = type { i8, [3 x i8], i32, ptr, ptr, ptr, i32, i32, ptr, ptr, ptr, ptr, i32, ptr, i32, i32, i32, ptr, ptr, ptr, ptr, ptr, i32, i32, ptr, ptr, ptr, i32, i32, i32, i32, ptr, ptr, [6 x ptr] }
%struct._zend_op = type { ptr, %union._znode_op, %union._znode_op, %union._znode_op, i32, i32, i8, i8, i8, i8 }
%union._znode_op = type { i32 }
%struct._zend_array = type { %struct._zend_refcounted_h, %union.anon.4, i32, %union.anon.6, i32, i32, i32, i32, i64, ptr }
%struct._zend_refcounted_h = type { i32, %union.anon.3 }
%union.anon.3 = type { i32 }
%union.anon.4 = type { i32 }
%union.anon.6 = type { ptr }
%struct.zend_get_gc_buffer = type { ptr, ptr, ptr }
%struct._zend_call_stack = type { ptr, i64 }
%struct._zend_strtod_state = type { [8 x ptr], ptr, ptr }
%struct._zend_strtod_bigint = type { ptr, i32, i32, i32, i32, [1 x i32] }

@executor_globals = external global %struct._zend_executor_globals, align 8
@.str.8 = private unnamed_addr constant [35 x i8] c"Balloc() failed to allocate memory\00", align 1

; Function Attrs: nounwind uwtable
define internal void @Bfree(ptr noundef %0) #0 {
  %2 = alloca ptr, align 8
  store ptr %0, ptr %2, align 8, !tbaa !11
  %3 = load ptr, ptr %2, align 8, !tbaa !11
  %4 = icmp ne ptr %3, null
  br i1 %4, label %5, label %28

5:                                                ; preds = %1
  %6 = load ptr, ptr %2, align 8, !tbaa !11
  %7 = getelementptr inbounds nuw %struct._zend_strtod_bigint, ptr %6, i32 0, i32 1
  %8 = load i32, ptr %7, align 8, !tbaa !63
  %9 = icmp sgt i32 %8, 7
  br i1 %9, label %10, label %12

10:                                               ; preds = %5
  %11 = load ptr, ptr %2, align 8, !tbaa !11
  call void @free(ptr noundef %11) #7
  br label %27

12:                                               ; preds = %5
  %13 = load ptr, ptr %2, align 8, !tbaa !11
  %14 = getelementptr inbounds nuw %struct._zend_strtod_bigint, ptr %13, i32 0, i32 1
  %15 = load i32, ptr %14, align 8, !tbaa !63
  %16 = sext i32 %15 to i64
  %17 = getelementptr inbounds [8 x ptr], ptr getelementptr inbounds nuw (%struct._zend_executor_globals, ptr @executor_globals, i32 0, i32 84), i64 0, i64 %16
  %18 = load ptr, ptr %17, align 8, !tbaa !11
  %19 = load ptr, ptr %2, align 8, !tbaa !11
  %20 = getelementptr inbounds nuw %struct._zend_strtod_bigint, ptr %19, i32 0, i32 0
  store ptr %18, ptr %20, align 8, !tbaa !13
  %21 = load ptr, ptr %2, align 8, !tbaa !11
  %22 = load ptr, ptr %2, align 8, !tbaa !11
  %23 = getelementptr inbounds nuw %struct._zend_strtod_bigint, ptr %22, i32 0, i32 1
  %24 = load i32, ptr %23, align 8, !tbaa !63
  %25 = sext i32 %24 to i64
  %26 = getelementptr inbounds [8 x ptr], ptr getelementptr inbounds nuw (%struct._zend_executor_globals, ptr @executor_globals, i32 0, i32 84), i64 0, i64 %25
  store ptr %21, ptr %26, align 8, !tbaa !11
  br label %27

27:                                               ; preds = %12, %10
  br label %28

28:                                               ; preds = %27, %1
  ret void
}

; Function Attrs: nounwind uwtable
define internal ptr @Balloc(i32 noundef %0) #0 {
  %2 = alloca i32, align 4
  %3 = alloca i32, align 4
  %4 = alloca ptr, align 8
  store i32 %0, ptr %2, align 4, !tbaa !4
  call void @llvm.lifetime.start.p0(i64 4, ptr %3) #7
  call void @llvm.lifetime.start.p0(i64 8, ptr %4) #7
  %5 = load i32, ptr %2, align 4, !tbaa !4
  %6 = icmp sle i32 %5, 7
  br i1 %6, label %7, label %20

7:                                                ; preds = %1
  %8 = load i32, ptr %2, align 4, !tbaa !4
  %9 = sext i32 %8 to i64
  %10 = getelementptr inbounds [8 x ptr], ptr getelementptr inbounds nuw (%struct._zend_executor_globals, ptr @executor_globals, i32 0, i32 84), i64 0, i64 %9
  %11 = load ptr, ptr %10, align 8, !tbaa !11
  store ptr %11, ptr %4, align 8, !tbaa !11
  %12 = icmp ne ptr %11, null
  br i1 %12, label %13, label %20

13:                                               ; preds = %7
  %14 = load ptr, ptr %4, align 8, !tbaa !11
  %15 = getelementptr inbounds nuw %struct._zend_strtod_bigint, ptr %14, i32 0, i32 0
  %16 = load ptr, ptr %15, align 8, !tbaa !13
  %17 = load i32, ptr %2, align 4, !tbaa !4
  %18 = sext i32 %17 to i64
  %19 = getelementptr inbounds [8 x ptr], ptr getelementptr inbounds nuw (%struct._zend_executor_globals, ptr @executor_globals, i32 0, i32 84), i64 0, i64 %18
  store ptr %16, ptr %19, align 8, !tbaa !11
  br label %39

20:                                               ; preds = %7, %1
  %21 = load i32, ptr %2, align 4, !tbaa !4
  %22 = shl i32 1, %21
  store i32 %22, ptr %3, align 4, !tbaa !4
  %23 = load i32, ptr %3, align 4, !tbaa !4
  %24 = sub nsw i32 %23, 1
  %25 = sext i32 %24 to i64
  %26 = mul i64 %25, 4
  %27 = add i64 32, %26
  %28 = call noalias ptr @malloc(i64 noundef %27) #8
  store ptr %28, ptr %4, align 8, !tbaa !11
  %29 = load ptr, ptr %4, align 8, !tbaa !11
  %30 = icmp ne ptr %29, null
  br i1 %30, label %32, label %31

31:                                               ; preds = %20
  call void (i32, ptr, ...) @zend_error_noreturn(i32 noundef 1, ptr noundef @.str.8) #9
  unreachable

32:                                               ; preds = %20
  %33 = load i32, ptr %2, align 4, !tbaa !4
  %34 = load ptr, ptr %4, align 8, !tbaa !11
  %35 = getelementptr inbounds nuw %struct._zend_strtod_bigint, ptr %34, i32 0, i32 1
  store i32 %33, ptr %35, align 8, !tbaa !63
  %36 = load i32, ptr %3, align 4, !tbaa !4
  %37 = load ptr, ptr %4, align 8, !tbaa !11
  %38 = getelementptr inbounds nuw %struct._zend_strtod_bigint, ptr %37, i32 0, i32 2
  store i32 %36, ptr %38, align 4, !tbaa !67
  br label %39

39:                                               ; preds = %32, %13
  %40 = load ptr, ptr %4, align 8, !tbaa !11
  %41 = getelementptr inbounds nuw %struct._zend_strtod_bigint, ptr %40, i32 0, i32 4
  store i32 0, ptr %41, align 4, !tbaa !64
  %42 = load ptr, ptr %4, align 8, !tbaa !11
  %43 = getelementptr inbounds nuw %struct._zend_strtod_bigint, ptr %42, i32 0, i32 3
  store i32 0, ptr %43, align 8, !tbaa !65
  %44 = load ptr, ptr %4, align 8, !tbaa !11
  call void @llvm.lifetime.end.p0(i64 8, ptr %4) #7
  call void @llvm.lifetime.end.p0(i64 4, ptr %3) #7
  ret ptr %44
}

; Function Attrs: nounwind uwtable
define internal ptr @lshift(ptr noundef %0, i32 noundef %1) #0 {
  %3 = alloca ptr, align 8
  %4 = alloca i32, align 4
  %5 = alloca i32, align 4
  %6 = alloca i32, align 4
  %7 = alloca i32, align 4
  %8 = alloca i32, align 4
  %9 = alloca ptr, align 8
  %10 = alloca ptr, align 8
  %11 = alloca ptr, align 8
  %12 = alloca ptr, align 8
  %13 = alloca i32, align 4
  store ptr %0, ptr %3, align 8, !tbaa !11
  store i32 %1, ptr %4, align 4, !tbaa !4
  call void @llvm.lifetime.start.p0(i64 4, ptr %5) #7
  call void @llvm.lifetime.start.p0(i64 4, ptr %6) #7
  call void @llvm.lifetime.start.p0(i64 4, ptr %7) #7
  call void @llvm.lifetime.start.p0(i64 4, ptr %8) #7
  call void @llvm.lifetime.start.p0(i64 8, ptr %9) #7
  call void @llvm.lifetime.start.p0(i64 8, ptr %10) #7
  call void @llvm.lifetime.start.p0(i64 8, ptr %11) #7
  call void @llvm.lifetime.start.p0(i64 8, ptr %12) #7
  call void @llvm.lifetime.start.p0(i64 4, ptr %13) #7
  %14 = load i32, ptr %4, align 4, !tbaa !4
  %15 = ashr i32 %14, 5
  store i32 %15, ptr %7, align 4, !tbaa !4
  %16 = load ptr, ptr %3, align 8, !tbaa !11
  %17 = getelementptr inbounds nuw %struct._zend_strtod_bigint, ptr %16, i32 0, i32 1
  %18 = load i32, ptr %17, align 8, !tbaa !63
  store i32 %18, ptr %6, align 4, !tbaa !4
  %19 = load i32, ptr %7, align 4, !tbaa !4
  %20 = load ptr, ptr %3, align 8, !tbaa !11
  %21 = getelementptr inbounds nuw %struct._zend_strtod_bigint, ptr %20, i32 0, i32 4
  %22 = load i32, ptr %21, align 4, !tbaa !64
  %23 = add nsw i32 %19, %22
  %24 = add nsw i32 %23, 1
  store i32 %24, ptr %8, align 4, !tbaa !4
  %25 = load ptr, ptr %3, align 8, !tbaa !11
  %26 = getelementptr inbounds nuw %struct._zend_strtod_bigint, ptr %25, i32 0, i32 2
  %27 = load i32, ptr %26, align 4, !tbaa !67
  store i32 %27, ptr %5, align 4, !tbaa !4
  br label %28

28:                                               ; preds = %35, %2
  %29 = load i32, ptr %8, align 4, !tbaa !4
  %30 = load i32, ptr %5, align 4, !tbaa !4
  %31 = icmp sgt i32 %29, %30
  br i1 %31, label %32, label %38

32:                                               ; preds = %28
  %33 = load i32, ptr %6, align 4, !tbaa !4
  %34 = add nsw i32 %33, 1
  store i32 %34, ptr %6, align 4, !tbaa !4
  br label %35

35:                                               ; preds = %32
  %36 = load i32, ptr %5, align 4, !tbaa !4
  %37 = shl i32 %36, 1
  store i32 %37, ptr %5, align 4, !tbaa !4
  br label %28

38:                                               ; preds = %28
  %39 = load i32, ptr %6, align 4, !tbaa !4
  %40 = call ptr @Balloc(i32 noundef %39)
  store ptr %40, ptr %9, align 8, !tbaa !11
  %41 = load ptr, ptr %9, align 8, !tbaa !11
  %42 = getelementptr inbounds nuw %struct._zend_strtod_bigint, ptr %41, i32 0, i32 5
  %43 = getelementptr inbounds [1 x i32], ptr %42, i64 0, i64 0
  store ptr %43, ptr %11, align 8, !tbaa !69
  store i32 0, ptr %5, align 4, !tbaa !4
  br label %44

44:                                               ; preds = %51, %38
  %45 = load i32, ptr %5, align 4, !tbaa !4
  %46 = load i32, ptr %7, align 4, !tbaa !4
  %47 = icmp slt i32 %45, %46
  br i1 %47, label %48, label %54

48:                                               ; preds = %44
  %49 = load ptr, ptr %11, align 8, !tbaa !69
  %50 = getelementptr inbounds nuw i32, ptr %49, i32 1
  store ptr %50, ptr %11, align 8, !tbaa !69
  store i32 0, ptr %49, align 4, !tbaa !4
  br label %51

51:                                               ; preds = %48
  %52 = load i32, ptr %5, align 4, !tbaa !4
  %53 = add nsw i32 %52, 1
  store i32 %53, ptr %5, align 4, !tbaa !4
  br label %44

54:                                               ; preds = %44
  %55 = load ptr, ptr %3, align 8, !tbaa !11
  %56 = getelementptr inbounds nuw %struct._zend_strtod_bigint, ptr %55, i32 0, i32 5
  %57 = getelementptr inbounds [1 x i32], ptr %56, i64 0, i64 0
  store ptr %57, ptr %10, align 8, !tbaa !69
  %58 = load ptr, ptr %10, align 8, !tbaa !69
  %59 = load ptr, ptr %3, align 8, !tbaa !11
  %60 = getelementptr inbounds nuw %struct._zend_strtod_bigint, ptr %59, i32 0, i32 4
  %61 = load i32, ptr %60, align 4, !tbaa !64
  %62 = sext i32 %61 to i64
  %63 = getelementptr inbounds i32, ptr %58, i64 %62
  store ptr %63, ptr %12, align 8, !tbaa !69
  %64 = load i32, ptr %4, align 4, !tbaa !4
  %65 = and i32 %64, 31
  store i32 %65, ptr %4, align 4, !tbaa !4
  %66 = icmp ne i32 %65, 0
  br i1 %66, label %67, label %96

67:                                               ; preds = %54
  %68 = load i32, ptr %4, align 4, !tbaa !4
  %69 = sub nsw i32 32, %68
  store i32 %69, ptr %6, align 4, !tbaa !4
  store i32 0, ptr %13, align 4, !tbaa !4
  br label %70

70:                                               ; preds = %84, %67
  %71 = load ptr, ptr %10, align 8, !tbaa !69
  %72 = load i32, ptr %71, align 4, !tbaa !4
  %73 = load i32, ptr %4, align 4, !tbaa !4
  %74 = shl i32 %72, %73
  %75 = load i32, ptr %13, align 4, !tbaa !4
  %76 = or i32 %74, %75
  %77 = load ptr, ptr %11, align 8, !tbaa !69
  %78 = getelementptr inbounds nuw i32, ptr %77, i32 1
  store ptr %78, ptr %11, align 8, !tbaa !69
  store i32 %76, ptr %77, align 4, !tbaa !4
  %79 = load ptr, ptr %10, align 8, !tbaa !69
  %80 = getelementptr inbounds nuw i32, ptr %79, i32 1
  store ptr %80, ptr %10, align 8, !tbaa !69
  %81 = load i32, ptr %79, align 4, !tbaa !4
  %82 = load i32, ptr %6, align 4, !tbaa !4
  %83 = lshr i32 %81, %82
  store i32 %83, ptr %13, align 4, !tbaa !4
  br label %84

84:                                               ; preds = %70
  %85 = load ptr, ptr %10, align 8, !tbaa !69
  %86 = load ptr, ptr %12, align 8, !tbaa !69
  %87 = icmp ult ptr %85, %86
  br i1 %87, label %70, label %88

88:                                               ; preds = %84
  %89 = load i32, ptr %13, align 4, !tbaa !4
  %90 = load ptr, ptr %11, align 8, !tbaa !69
  store i32 %89, ptr %90, align 4, !tbaa !4
  %91 = icmp ne i32 %89, 0
  br i1 %91, label %92, label %95

92:                                               ; preds = %88
  %93 = load i32, ptr %8, align 4, !tbaa !4
  %94 = add nsw i32 %93, 1
  store i32 %94, ptr %8, align 4, !tbaa !4
  br label %95

95:                                               ; preds = %92, %88
  br label %108

96:                                               ; preds = %54
  br label %97

97:                                               ; preds = %103, %96
  %98 = load ptr, ptr %10, align 8, !tbaa !69
  %99 = getelementptr inbounds nuw i32, ptr %98, i32 1
  store ptr %99, ptr %10, align 8, !tbaa !69
  %100 = load i32, ptr %98, align 4, !tbaa !4
  %101 = load ptr, ptr %11, align 8, !tbaa !69
  %102 = getelementptr inbounds nuw i32, ptr %101, i32 1
  store ptr %102, ptr %11, align 8, !tbaa !69
  store i32 %100, ptr %101, align 4, !tbaa !4
  br label %103

103:                                              ; preds = %97
  %104 = load ptr, ptr %10, align 8, !tbaa !69
  %105 = load ptr, ptr %12, align 8, !tbaa !69
  %106 = icmp ult ptr %104, %105
  br i1 %106, label %97, label %107

107:                                              ; preds = %103
  br label %108

108:                                              ; preds = %107, %95
  %109 = load i32, ptr %8, align 4, !tbaa !4
  %110 = sub nsw i32 %109, 1
  %111 = load ptr, ptr %9, align 8, !tbaa !11
  %112 = getelementptr inbounds nuw %struct._zend_strtod_bigint, ptr %111, i32 0, i32 4
  store i32 %110, ptr %112, align 4, !tbaa !64
  %113 = load ptr, ptr %3, align 8, !tbaa !11
  call void @Bfree(ptr noundef %113)
  %114 = load ptr, ptr %9, align 8, !tbaa !11
  call void @llvm.lifetime.end.p0(i64 4, ptr %13) #7
  call void @llvm.lifetime.end.p0(i64 8, ptr %12) #7
  call void @llvm.lifetime.end.p0(i64 8, ptr %11) #7
  call void @llvm.lifetime.end.p0(i64 8, ptr %10) #7
  call void @llvm.lifetime.end.p0(i64 8, ptr %9) #7
  call void @llvm.lifetime.end.p0(i64 4, ptr %8) #7
  call void @llvm.lifetime.end.p0(i64 4, ptr %7) #7
  call void @llvm.lifetime.end.p0(i64 4, ptr %6) #7
  call void @llvm.lifetime.end.p0(i64 4, ptr %5) #7
  ret ptr %114
}