; Function Attrs: nounwind uwtable
define internal fastcc nonnull ptr @lshift(ptr noundef %0, i32 noundef range(i32 -2147483593, -2147483648) %1) unnamed_addr #0 {
  %3 = ashr i32 %1, 5
  %4 = getelementptr inbounds nuw i8, ptr %0, i64 8
  %5 = load i32, ptr %4, align 8, !tbaa !48
  %6 = getelementptr inbounds nuw i8, ptr %0, i64 20
  %7 = load i32, ptr %6, align 4, !tbaa !52
  %8 = add nsw i32 %7, %3
  %9 = getelementptr inbounds nuw i8, ptr %0, i64 12
  %10 = load i32, ptr %9, align 4, !tbaa !49
  %.not51 = icmp slt i32 %8, %10
  br i1 %.not51, label %._crit_edge, label %.lr.ph

.lr.ph:                                           ; preds = %2, %.lr.ph
  %.04153 = phi i32 [ %12, %.lr.ph ], [ %10, %2 ]
  %.04452 = phi i32 [ %11, %.lr.ph ], [ %5, %2 ]
  %11 = add nsw i32 %.04452, 1
  %12 = shl i32 %.04153, 1
  %.not = icmp slt i32 %8, %12
  br i1 %.not, label %._crit_edge, label %.lr.ph

._crit_edge:                                      ; preds = %.lr.ph, %2
  %.044.lcssa = phi i32 [ %5, %2 ], [ %11, %.lr.ph ]
  %13 = icmp slt i32 %.044.lcssa, 8
  br i1 %13, label %14, label %20

14:                                               ; preds = %._crit_edge
  %15 = sext i32 %.044.lcssa to i64
  %16 = getelementptr inbounds [8 x ptr], ptr getelementptr inbounds nuw (i8, ptr @executor_globals, i64 1856), i64 0, i64 %15
  %17 = load ptr, ptr %16, align 8, !tbaa !4
  %.not.i = icmp eq ptr %17, null
  br i1 %.not.i, label %20, label %18

18:                                               ; preds = %14
  %19 = load ptr, ptr %17, align 8, !tbaa !9
  store ptr %19, ptr %16, align 8, !tbaa !4
  br label %Balloc.exit

20:                                               ; preds = %14, %._crit_edge
  %21 = shl nuw i32 1, %.044.lcssa
  %22 = add nsw i32 %21, -1
  %23 = zext nneg i32 %22 to i64
  %24 = shl nuw nsw i64 %23, 2
  %25 = add nuw nsw i64 %24, 32
  %26 = tail call noalias ptr @malloc(i64 noundef %25) #14
  %.not16.i = icmp eq ptr %26, null
  br i1 %.not16.i, label %27, label %28

27:                                               ; preds = %20
  tail call void (i32, ptr, ...) @zend_error_noreturn(i32 noundef 1, ptr noundef nonnull @.str.8) #15
  unreachable

28:                                               ; preds = %20
  %29 = getelementptr inbounds nuw i8, ptr %26, i64 8
  store i32 %.044.lcssa, ptr %29, align 8, !tbaa !48
  %30 = getelementptr inbounds nuw i8, ptr %26, i64 12
  store i32 %21, ptr %30, align 4, !tbaa !49
  br label %Balloc.exit

Balloc.exit:                                      ; preds = %18, %28
  %.0.i = phi ptr [ %17, %18 ], [ %26, %28 ]
  %31 = getelementptr inbounds nuw i8, ptr %.0.i, i64 20
  store i32 0, ptr %31, align 4, !tbaa !52
  %32 = getelementptr inbounds nuw i8, ptr %.0.i, i64 16
  store i32 0, ptr %32, align 8, !tbaa !50
  %33 = getelementptr i8, ptr %.0.i, i64 24
  %34 = icmp sgt i32 %3, 0
  br i1 %34, label %.lr.ph56.preheader, label %._crit_edge57

.lr.ph56.preheader:                               ; preds = %Balloc.exit
  %35 = zext nneg i32 %3 to i64
  %36 = shl nuw nsw i64 %35, 2
  tail call void @llvm.memset.p0.i64(ptr align 4 %33, i8 0, i64 %36, i1 false), !tbaa !51
  %37 = add nsw i32 %3, -1
  %38 = zext nneg i32 %37 to i64
  %39 = shl nuw nsw i64 %38, 2
  %40 = getelementptr i8, ptr %.0.i, i64 %39
  %scevgep = getelementptr i8, ptr %40, i64 28
  br label %._crit_edge57

._crit_edge57:                                    ; preds = %.lr.ph56.preheader, %Balloc.exit
  %.038.lcssa = phi ptr [ %33, %Balloc.exit ], [ %scevgep, %.lr.ph56.preheader ]
  %41 = getelementptr inbounds nuw i8, ptr %0, i64 24
  %42 = load i32, ptr %6, align 4, !tbaa !52
  %43 = sext i32 %42 to i64
  %44 = getelementptr inbounds i32, ptr %41, i64 %43
  %45 = and i32 %1, 31
  %.not47 = icmp eq i32 %45, 0
  br i1 %.not47, label %.preheader, label %46

46:                                               ; preds = %._crit_edge57
  %47 = sub nuw nsw i32 32, %45
  br label %48

48:                                               ; preds = %48, %46
  %.039 = phi ptr [ %41, %46 ], [ %53, %48 ]
  %.1 = phi ptr [ %.038.lcssa, %46 ], [ %52, %48 ]
  %.0 = phi i32 [ 0, %46 ], [ %55, %48 ]
  %49 = load i32, ptr %.039, align 4, !tbaa !51
  %50 = shl i32 %49, %45
  %51 = or i32 %50, %.0
  %52 = getelementptr inbounds nuw i8, ptr %.1, i64 4
  store i32 %51, ptr %.1, align 4, !tbaa !51
  %53 = getelementptr inbounds nuw i8, ptr %.039, i64 4
  %54 = load i32, ptr %.039, align 4, !tbaa !51
  %55 = lshr i32 %54, %47
  %56 = icmp ult ptr %53, %44
  br i1 %56, label %48, label %57

57:                                               ; preds = %48
  store i32 %55, ptr %52, align 4, !tbaa !51
  %.not48 = icmp ne i32 %55, 0
  %58 = zext i1 %.not48 to i32
  %spec.select = add nsw i32 %8, %58
  br label %.loopexit

.preheader:                                       ; preds = %._crit_edge57, %.preheader
  %.140 = phi ptr [ %59, %.preheader ], [ %41, %._crit_edge57 ]
  %.2 = phi ptr [ %61, %.preheader ], [ %.038.lcssa, %._crit_edge57 ]
  %59 = getelementptr inbounds nuw i8, ptr %.140, i64 4
  %60 = load i32, ptr %.140, align 4, !tbaa !51
  %61 = getelementptr inbounds nuw i8, ptr %.2, i64 4
  store i32 %60, ptr %.2, align 4, !tbaa !51
  %62 = icmp ult ptr %59, %44
  br i1 %62, label %.preheader, label %.loopexit

.loopexit:                                        ; preds = %.preheader, %57
  %.043 = phi i32 [ %spec.select, %57 ], [ %8, %.preheader ]
  store i32 %.043, ptr %31, align 4, !tbaa !52
  %.not.i49 = icmp eq ptr %0, null
  br i1 %.not.i49, label %Bfree.exit, label %63

63:                                               ; preds = %.loopexit
  %64 = load i32, ptr %4, align 8, !tbaa !48
  %65 = icmp sgt i32 %64, 7
  br i1 %65, label %66, label %67

66:                                               ; preds = %63
  tail call void @free(ptr noundef nonnull %0) #13
  br label %Bfree.exit

67:                                               ; preds = %63
  %68 = sext i32 %64 to i64
  %69 = getelementptr inbounds [8 x ptr], ptr getelementptr inbounds nuw (i8, ptr @executor_globals, i64 1856), i64 0, i64 %68
  %70 = load ptr, ptr %69, align 8, !tbaa !4
  store ptr %70, ptr %0, align 8, !tbaa !9
  store ptr %0, ptr %69, align 8, !tbaa !4
  br label %Bfree.exit

Bfree.exit:                                       ; preds = %.loopexit, %66, %67
  ret ptr %.0.i
}